target datalayout = "e-m:e-p270:32:32-p271:32:32-p272:64:64-i64:64-i128:128-f80:128-n8:16:32:64-S128"
target triple = "x86_64-pc-linux-gnu"

%"struct.cv::DivStruct" = type { i32, i32, i32, i32, i32 }

; Function Attrs: mustprogress nounwind uwtable
define internal noundef signext i8 @_ZN2cvL13saturate_castIaEET_i(i32 noundef %0) #4 {
  %2 = alloca i32, align 4
  store i32 %0, ptr %2, align 4
  %3 = load i32, ptr %2, align 4
  %4 = sub nsw i32 %3, -128
  %5 = icmp ule i32 %4, 255
  br i1 %5, label %6, label %8

6:                                                ; preds = %1
  %7 = load i32, ptr %2, align 4
  br label %12

8:                                                ; preds = %1
  %9 = load i32, ptr %2, align 4
  %10 = icmp sgt i32 %9, 0
  %11 = select i1 %10, i32 127, i32 -128
  br label %12

12:                                               ; preds = %8, %6
  %13 = phi i32 [ %7, %6 ], [ %11, %8 ]
  %14 = trunc i32 %13 to i8
  ret i8 %14
}

; Function Attrs: mustprogress uwtable
define internal void @_ZN2cvL6randi_IaEEvPT_iPmPKNS_9DivStructE(ptr noundef %0, i32 noundef %1, ptr noundef %2, ptr noundef %3) #0 {
  %5 = alloca ptr, align 8
  %6 = alloca i32, align 4
  %7 = alloca ptr, align 8
  %8 = alloca ptr, align 8
  %9 = alloca i64, align 8
  %10 = alloca i32, align 4
  %11 = alloca i32, align 4
  %12 = alloca i32, align 4
  store ptr %0, ptr %5, align 8
  store i32 %1, ptr %6, align 4
  store ptr %2, ptr %7, align 8
  store ptr %3, ptr %8, align 8
  %13 = load ptr, ptr %7, align 8
  %14 = load i64, ptr %13, align 8
  store i64 %14, ptr %9, align 8
  store i32 0, ptr %10, align 4
  br label %15

15:                                               ; preds = %83, %4
  %16 = load i32, ptr %10, align 4
  %17 = load i32, ptr %6, align 4
  %18 = icmp slt i32 %16, %17
  br i1 %18, label %19, label %86

19:                                               ; preds = %15
  %20 = load i64, ptr %9, align 8
  %21 = trunc i64 %20 to i32
  %22 = zext i32 %21 to i64
  %23 = mul i64 %22, 4164903690
  %24 = load i64, ptr %9, align 8
  %25 = lshr i64 %24, 32
  %26 = add i64 %23, %25
  store i64 %26, ptr %9, align 8
  %27 = load i64, ptr %9, align 8
  %28 = trunc i64 %27 to i32
  store i32 %28, ptr %11, align 4
  %29 = load i32, ptr %11, align 4
  %30 = zext i32 %29 to i64
  %31 = load ptr, ptr %8, align 8
  %32 = load i32, ptr %10, align 4
  %33 = sext i32 %32 to i64
  %34 = getelementptr inbounds %"struct.cv::DivStruct", ptr %31, i64 %33
  %35 = getelementptr inbounds %"struct.cv::DivStruct", ptr %34, i32 0, i32 1
  %36 = load i32, ptr %35, align 4
  %37 = zext i32 %36 to i64
  %38 = mul i64 %30, %37
  %39 = lshr i64 %38, 32
  %40 = trunc i64 %39 to i32
  store i32 %40, ptr %12, align 4
  %41 = load i32, ptr %12, align 4
  %42 = load i32, ptr %11, align 4
  %43 = load i32, ptr %12, align 4
  %44 = sub i32 %42, %43
  %45 = load ptr, ptr %8, align 8
  %46 = load i32, ptr %10, align 4
  %47 = sext i32 %46 to i64
  %48 = getelementptr inbounds %"struct.cv::DivStruct", ptr %45, i64 %47
  %49 = getelementptr inbounds %"struct.cv::DivStruct", ptr %48, i32 0, i32 2
  %50 = load i32, ptr %49, align 4
  %51 = lshr i32 %44, %50
  %52 = add i32 %41, %51
  %53 = load ptr, ptr %8, align 8
  %54 = load i32, ptr %10, align 4
  %55 = sext i32 %54 to i64
  %56 = getelementptr inbounds %"struct.cv::DivStruct", ptr %53, i64 %55
  %57 = getelementptr inbounds %"struct.cv::DivStruct", ptr %56, i32 0, i32 3
  %58 = load i32, ptr %57, align 4
  %59 = lshr i32 %52, %58
  store i32 %59, ptr %12, align 4
  %60 = load i32, ptr %11, align 4
  %61 = load i32, ptr %12, align 4
  %62 = load ptr, ptr %8, align 8
  %63 = load i32, ptr %10, align 4
  %64 = sext i32 %63 to i64
  %65 = getelementptr inbounds %"struct.cv::DivStruct", ptr %62, i64 %64
  %66 = getelementptr inbounds %"struct.cv::DivStruct", ptr %65, i32 0, i32 0
  %67 = load i32, ptr %66, align 4
  %68 = mul i32 %61, %67
  %69 = sub i32 %60, %68
  %70 = load ptr, ptr %8, align 8
  %71 = load i32, ptr %10, align 4
  %72 = sext i32 %71 to i64
  %73 = getelementptr inbounds %"struct.cv::DivStruct", ptr %70, i64 %72
  %74 = getelementptr inbounds %"struct.cv::DivStruct", ptr %73, i32 0, i32 4
  %75 = load i32, ptr %74, align 4
  %76 = add i32 %69, %75
  store i32 %76, ptr %12, align 4
  %77 = load i32, ptr %12, align 4
  %78 = call noundef signext i8 @_ZN2cvL13saturate_castIaEET_i(i32 noundef %77)
  %79 = load ptr, ptr %5, align 8
  %80 = load i32, ptr %10, align 4
  %81 = sext i32 %80 to i64
  %82 = getelementptr inbounds i8, ptr %79, i64 %81
  store i8 %78, ptr %82, align 1
  br label %83

83:                                               ; preds = %19
  %84 = load i32, ptr %10, align 4
  %85 = add nsw i32 %84, 1
  store i32 %85, ptr %10, align 4
  br label %15, !llvm.loop !65

86:                                               ; preds = %15
  %87 = load i64, ptr %9, align 8
  %88 = load ptr, ptr %7, align 8
  store i64 %87, ptr %88, align 8
  ret void
}

; Function Attrs: mustprogress uwtable
define internal void @_ZN2cvL8randi_8sEPaiPmPKNS_9DivStructEPvb(ptr noundef %0, i32 noundef %1, ptr noundef %2, ptr noundef %3, ptr noundef %4, i1 noundef zeroext %5) #0 {
  %7 = alloca ptr, align 8
  %8 = alloca i32, align 4
  %9 = alloca ptr, align 8
  %10 = alloca ptr, align 8
  %11 = alloca ptr, align 8
  %12 = alloca i8, align 1
  store ptr %0, ptr %7, align 8
  store i32 %1, ptr %8, align 4
  store ptr %2, ptr %9, align 8
  store ptr %3, ptr %10, align 8
  store ptr %4, ptr %11, align 8
  %13 = zext i1 %5 to i8
  store i8 %13, ptr %12, align 1
  %14 = load ptr, ptr %7, align 8
  %15 = load i32, ptr %8, align 4
  %16 = load ptr, ptr %9, align 8
  %17 = load ptr, ptr %10, align 8
  call void @_ZN2cvL6randi_IaEEvPT_iPmPKNS_9DivStructE(ptr noundef %14, i32 noundef %15, ptr noundef %16, ptr noundef %17)
  ret void
}