; Function Attrs: mustprogress nofree norecurse nosync nounwind memory(argmem: readwrite) uwtable
define internal void @_ZN2cvL8randi_8sEPaiPmPKNS_9DivStructEPvb(ptr nocapture noundef writeonly %0, i32 noundef %1, ptr nocapture noundef %2, ptr nocapture noundef readonly %3, ptr nocapture readnone %4, i1 zeroext %5) #7 {
  %7 = load i64, ptr %2, align 8
  %8 = icmp sgt i32 %1, 0
  br i1 %8, label %.lr.ph.preheader.i, label %_ZN2cvL6randi_IaEEvPT_iPmPKNS_9DivStructE.exit

.lr.ph.preheader.i:                               ; preds = %6
  %wide.trip.count.i = zext nneg i32 %1 to i64
  br label %.lr.ph.i

.lr.ph.i:                                         ; preds = %.lr.ph.i, %.lr.ph.preheader.i
  %indvars.iv.i = phi i64 [ 0, %.lr.ph.preheader.i ], [ %indvars.iv.next.i, %.lr.ph.i ]
  %.029.i = phi i64 [ %7, %.lr.ph.preheader.i ], [ %12, %.lr.ph.i ]
  %9 = and i64 %.029.i, 4294967295
  %10 = mul nuw i64 %9, 4164903690
  %11 = lshr i64 %.029.i, 32
  %12 = add nuw i64 %10, %11
  %13 = trunc i64 %12 to i32
  %14 = and i64 %12, 4294967295
  %15 = getelementptr inbounds %"struct.cv::DivStruct", ptr %3, i64 %indvars.iv.i
  %16 = getelementptr inbounds i8, ptr %15, i64 4
  %17 = load i32, ptr %16, align 4
  %18 = zext i32 %17 to i64
  %19 = mul nuw i64 %14, %18
  %20 = lshr i64 %19, 32
  %21 = trunc nuw i64 %20 to i32
  %22 = sub i32 %13, %21
  %23 = getelementptr inbounds i8, ptr %15, i64 8
  %24 = load i32, ptr %23, align 4
  %25 = lshr i32 %22, %24
  %26 = add i32 %25, %21
  %27 = getelementptr inbounds i8, ptr %15, i64 12
  %28 = load i32, ptr %27, align 4
  %29 = lshr i32 %26, %28
  %30 = load i32, ptr %15, align 4
  %31 = mul i32 %29, %30
  %32 = getelementptr inbounds i8, ptr %15, i64 16
  %33 = load i32, ptr %32, align 4
  %34 = add i32 %33, %13
  %35 = sub i32 %34, %31
  %36 = tail call i32 @llvm.smax.i32(i32 %35, i32 -128)
  %37 = tail call i32 @llvm.smin.i32(i32 %36, i32 127)
  %38 = trunc nsw i32 %37 to i8
  %39 = getelementptr inbounds i8, ptr %0, i64 %indvars.iv.i
  store i8 %38, ptr %39, align 1
  %indvars.iv.next.i = add nuw nsw i64 %indvars.iv.i, 1
  %exitcond.not.i = icmp eq i64 %indvars.iv.next.i, %wide.trip.count.i
  br i1 %exitcond.not.i, label %_ZN2cvL6randi_IaEEvPT_iPmPKNS_9DivStructE.exit, label %.lr.ph.i, !llvm.loop !80

_ZN2cvL6randi_IaEEvPT_iPmPKNS_9DivStructE.exit:   ; preds = %.lr.ph.i, %6
  %.0.lcssa.i = phi i64 [ %7, %6 ], [ %12, %.lr.ph.i ]
  store i64 %.0.lcssa.i, ptr %2, align 8
  ret void
}